target datalayout = "e-m:e-p270:32:32-p271:32:32-p272:64:64-i64:64-i128:128-f80:128-n8:16:32:64-S128"
target triple = "x86_64-pc-linux-gnu"

%union.ListCell = type { ptr }
%struct.ForEachState = type { ptr, i32 }
%struct.List = type { i32, i32, i32, ptr, [0 x %union.ListCell] }
%struct.SyncRepConfigData = type { i32, i32, i8, i32, [0 x i8] }

; Function Attrs: inlinehint nounwind uwtable
define internal i32 @list_length(ptr noundef %0) #7 {
  %2 = alloca ptr, align 8
  store ptr %0, ptr %2, align 8
  %3 = load ptr, ptr %2, align 8
  %4 = icmp ne ptr %3, null
  br i1 %4, label %5, label %9

5:                                                ; preds = %1
  %6 = load ptr, ptr %2, align 8
  %7 = getelementptr inbounds nuw %struct.List, ptr %6, i32 0, i32 1
  %8 = load i32, ptr %7, align 4
  br label %10

9:                                                ; preds = %1
  br label %10

10:                                               ; preds = %9, %5
  %11 = phi i32 [ %8, %5 ], [ 0, %9 ]
  ret i32 %11
}

; Function Attrs: inlinehint nounwind willreturn memory(read) uwtable
define available_externally i32 @atoi(ptr noundef nonnull %0) #6 {
  %2 = alloca ptr, align 8
  store ptr %0, ptr %2, align 8
  %3 = load ptr, ptr %2, align 8
  %4 = call i64 @strtol(ptr noundef %3, ptr noundef null, i32 noundef 10) #9
  %5 = trunc i64 %4 to i32
  ret i32 %5
}

; Function Attrs: nounwind uwtable
define internal ptr @create_syncrep_config(ptr noundef %0, ptr noundef %1, i8 noundef zeroext %2) #0 {
  %4 = alloca ptr, align 8
  %5 = alloca ptr, align 8
  %6 = alloca i8, align 1
  %7 = alloca ptr, align 8
  %8 = alloca i32, align 4
  %9 = alloca ptr, align 8
  %10 = alloca ptr, align 8
  %11 = alloca %struct.ForEachState, align 8
  %12 = alloca ptr, align 8
  %13 = alloca %struct.ForEachState, align 8
  %14 = alloca ptr, align 8
  store ptr %0, ptr %4, align 8
  store ptr %1, ptr %5, align 8
  store i8 %2, ptr %6, align 1
  call void @llvm.lifetime.start.p0(i64 8, ptr %7) #9
  call void @llvm.lifetime.start.p0(i64 4, ptr %8) #9
  call void @llvm.lifetime.start.p0(i64 8, ptr %9) #9
  call void @llvm.lifetime.start.p0(i64 8, ptr %10) #9
  store i32 16, ptr %8, align 4
  call void @llvm.lifetime.start.p0(i64 16, ptr %11) #9
  %15 = getelementptr inbounds nuw %struct.ForEachState, ptr %11, i32 0, i32 0
  %16 = load ptr, ptr %5, align 8
  store ptr %16, ptr %15, align 8
  %17 = getelementptr inbounds nuw %struct.ForEachState, ptr %11, i32 0, i32 1
  store i32 0, ptr %17, align 8
  %18 = getelementptr i8, ptr %11, i64 12
  call void @llvm.memset.p0.i64(ptr align 4 %18, i8 0, i64 4, i1 false)
  br label %19

19:                                               ; preds = %55, %3
  %20 = getelementptr inbounds nuw %struct.ForEachState, ptr %11, i32 0, i32 0
  %21 = load ptr, ptr %20, align 8
  %22 = icmp ne ptr %21, null
  br i1 %22, label %23, label %40

23:                                               ; preds = %19
  %24 = getelementptr inbounds nuw %struct.ForEachState, ptr %11, i32 0, i32 1
  %25 = load i32, ptr %24, align 8
  %26 = getelementptr inbounds nuw %struct.ForEachState, ptr %11, i32 0, i32 0
  %27 = load ptr, ptr %26, align 8
  %28 = getelementptr inbounds nuw %struct.List, ptr %27, i32 0, i32 1
  %29 = load i32, ptr %28, align 4
  %30 = icmp slt i32 %25, %29
  br i1 %30, label %31, label %40

31:                                               ; preds = %23
  %32 = getelementptr inbounds nuw %struct.ForEachState, ptr %11, i32 0, i32 0
  %33 = load ptr, ptr %32, align 8
  %34 = getelementptr inbounds nuw %struct.List, ptr %33, i32 0, i32 3
  %35 = load ptr, ptr %34, align 8
  %36 = getelementptr inbounds nuw %struct.ForEachState, ptr %11, i32 0, i32 1
  %37 = load i32, ptr %36, align 8
  %38 = sext i32 %37 to i64
  %39 = getelementptr inbounds %union.ListCell, ptr %35, i64 %38
  store ptr %39, ptr %9, align 8
  br label %41

40:                                               ; preds = %23, %19
  store ptr null, ptr %9, align 8
  br label %41

41:                                               ; preds = %40, %31
  %42 = phi i32 [ 1, %31 ], [ 0, %40 ]
  %43 = icmp ne i32 %42, 0
  br i1 %43, label %45, label %44

44:                                               ; preds = %41
  call void @llvm.lifetime.end.p0(i64 16, ptr %11) #9
  br label %59

45:                                               ; preds = %41
  call void @llvm.lifetime.start.p0(i64 8, ptr %12) #9
  %46 = load ptr, ptr %9, align 8
  %47 = load ptr, ptr %46, align 8
  store ptr %47, ptr %12, align 8
  %48 = load ptr, ptr %12, align 8
  %49 = call i64 @strlen(ptr noundef %48) #10
  %50 = add i64 %49, 1
  %51 = load i32, ptr %8, align 4
  %52 = sext i32 %51 to i64
  %53 = add i64 %52, %50
  %54 = trunc i64 %53 to i32
  store i32 %54, ptr %8, align 4
  call void @llvm.lifetime.end.p0(i64 8, ptr %12) #9
  br label %55

55:                                               ; preds = %45
  %56 = getelementptr inbounds nuw %struct.ForEachState, ptr %11, i32 0, i32 1
  %57 = load i32, ptr %56, align 8
  %58 = add i32 %57, 1
  store i32 %58, ptr %56, align 8
  br label %19, !llvm.loop !6

59:                                               ; preds = %44
  %60 = load i32, ptr %8, align 4
  %61 = sext i32 %60 to i64
  %62 = call ptr @palloc(i64 noundef %61)
  store ptr %62, ptr %7, align 8
  %63 = load i32, ptr %8, align 4
  %64 = load ptr, ptr %7, align 8
  %65 = getelementptr inbounds nuw %struct.SyncRepConfigData, ptr %64, i32 0, i32 0
  store i32 %63, ptr %65, align 4
  %66 = load ptr, ptr %4, align 8
  %67 = call i32 @atoi(ptr noundef %66) #10
  %68 = load ptr, ptr %7, align 8
  %69 = getelementptr inbounds nuw %struct.SyncRepConfigData, ptr %68, i32 0, i32 1
  store i32 %67, ptr %69, align 4
  %70 = load i8, ptr %6, align 1
  %71 = load ptr, ptr %7, align 8
  %72 = getelementptr inbounds nuw %struct.SyncRepConfigData, ptr %71, i32 0, i32 2
  store i8 %70, ptr %72, align 4
  %73 = load ptr, ptr %5, align 8
  %74 = call i32 @list_length(ptr noundef %73)
  %75 = load ptr, ptr %7, align 8
  %76 = getelementptr inbounds nuw %struct.SyncRepConfigData, ptr %75, i32 0, i32 3
  store i32 %74, ptr %76, align 4
  %77 = load ptr, ptr %7, align 8
  %78 = getelementptr inbounds nuw %struct.SyncRepConfigData, ptr %77, i32 0, i32 4
  %79 = getelementptr inbounds [0 x i8], ptr %78, i64 0, i64 0
  store ptr %79, ptr %10, align 8
  call void @llvm.lifetime.start.p0(i64 16, ptr %13) #9
  %80 = getelementptr inbounds nuw %struct.ForEachState, ptr %13, i32 0, i32 0
  %81 = load ptr, ptr %5, align 8
  store ptr %81, ptr %80, align 8
  %82 = getelementptr inbounds nuw %struct.ForEachState, ptr %13, i32 0, i32 1
  store i32 0, ptr %82, align 8
  %83 = getelementptr i8, ptr %13, i64 12
  call void @llvm.memset.p0.i64(ptr align 4 %83, i8 0, i64 4, i1 false)
  br label %84

84:                                               ; preds = %121, %59
  %85 = getelementptr inbounds nuw %struct.ForEachState, ptr %13, i32 0, i32 0
  %86 = load ptr, ptr %85, align 8
  %87 = icmp ne ptr %86, null
  br i1 %87, label %88, label %105

88:                                               ; preds = %84
  %89 = getelementptr inbounds nuw %struct.ForEachState, ptr %13, i32 0, i32 1
  %90 = load i32, ptr %89, align 8
  %91 = getelementptr inbounds nuw %struct.ForEachState, ptr %13, i32 0, i32 0
  %92 = load ptr, ptr %91, align 8
  %93 = getelementptr inbounds nuw %struct.List, ptr %92, i32 0, i32 1
  %94 = load i32, ptr %93, align 4
  %95 = icmp slt i32 %90, %94
  br i1 %95, label %96, label %105

96:                                               ; preds = %88
  %97 = getelementptr inbounds nuw %struct.ForEachState, ptr %13, i32 0, i32 0
  %98 = load ptr, ptr %97, align 8
  %99 = getelementptr inbounds nuw %struct.List, ptr %98, i32 0, i32 3
  %100 = load ptr, ptr %99, align 8
  %101 = getelementptr inbounds nuw %struct.ForEachState, ptr %13, i32 0, i32 1
  %102 = load i32, ptr %101, align 8
  %103 = sext i32 %102 to i64
  %104 = getelementptr inbounds %union.ListCell, ptr %100, i64 %103
  store ptr %104, ptr %9, align 8
  br label %106

105:                                              ; preds = %88, %84
  store ptr null, ptr %9, align 8
  br label %106

106:                                              ; preds = %105, %96
  %107 = phi i32 [ 1, %96 ], [ 0, %105 ]
  %108 = icmp ne i32 %107, 0
  br i1 %108, label %110, label %109

109:                                              ; preds = %106
  call void @llvm.lifetime.end.p0(i64 16, ptr %13) #9
  br label %125

110:                                              ; preds = %106
  call void @llvm.lifetime.start.p0(i64 8, ptr %14) #9
  %111 = load ptr, ptr %9, align 8
  %112 = load ptr, ptr %111, align 8
  store ptr %112, ptr %14, align 8
  %113 = load ptr, ptr %10, align 8
  %114 = load ptr, ptr %14, align 8
  %115 = call ptr @strcpy(ptr noundef %113, ptr noundef %114) #9
  %116 = load ptr, ptr %14, align 8
  %117 = call i64 @strlen(ptr noundef %116) #10
  %118 = add i64 %117, 1
  %119 = load ptr, ptr %10, align 8
  %120 = getelementptr inbounds nuw i8, ptr %119, i64 %118
  store ptr %120, ptr %10, align 8
  call void @llvm.lifetime.end.p0(i64 8, ptr %14) #9
  br label %121

121:                                              ; preds = %110
  %122 = getelementptr inbounds nuw %struct.ForEachState, ptr %13, i32 0, i32 1
  %123 = load i32, ptr %122, align 8
  %124 = add i32 %123, 1
  store i32 %124, ptr %122, align 8
  br label %84, !llvm.loop !7

125:                                              ; preds = %109
  %126 = load ptr, ptr %7, align 8
  call void @llvm.lifetime.end.p0(i64 8, ptr %10) #9
  call void @llvm.lifetime.end.p0(i64 8, ptr %9) #9
  call void @llvm.lifetime.end.p0(i64 4, ptr %8) #9
  call void @llvm.lifetime.end.p0(i64 8, ptr %7) #9
  ret ptr %126
}